target datalayout = "e-m:e-p270:32:32-p271:32:32-p272:64:64-i64:64-i128:128-f80:128-n8:16:32:64-S128"
target triple = "x86_64-pc-linux-gnu"

%"class.pbrt::Medium" = type { %"class.pbrt::TaggedPointer" }
%"class.pbrt::TaggedPointer" = type { i64 }
%"class.pbrt::LightBase" = type { i32, %"class.pbrt::Transform", %"struct.pbrt::MediumInterface" }
%"class.pbrt::Transform" = type { %"class.pbrt::SquareMatrix.10", %"class.pbrt::SquareMatrix.10" }
%"class.pbrt::SquareMatrix.10" = type { [4 x [4 x float]] }
%"struct.pbrt::MediumInterface" = type { %"class.pbrt::Medium", %"class.pbrt::Medium" }
%"class.pbrt::Spectrum" = type { %"class.pbrt::TaggedPointer.11" }
%"class.pbrt::TaggedPointer.11" = type { i64 }
%"class.pbrt::SpotLight" = type <{ %"class.pbrt::LightBase", ptr, float, float, float, [4 x i8] }>

@.str.11 = private unnamed_addr constant [113 x i8] c"generated/home/dtcxzyw/WorkSpace/Projects/compilers/llvm-opt-benchmark/bench/pbrt-v4/pbrt-v4/src/pbrt/lights.cpp\00", align 1
@_ZN4pbrtL9numLightsE = internal thread_local global i64 0, align 8
@.str.79 = private unnamed_addr constant [45 x i8] c"Check failed: %s <= %s with %s = %s, %s = %s\00", align 1
@.str.80 = private unnamed_addr constant [13 x i8] c"falloffStart\00", align 1
@.str.81 = private unnamed_addr constant [11 x i8] c"totalWidth\00", align 1

; Function Attrs: mustprogress nounwind uwtable
define linkonce_odr dso_local void @_ZN4pbrt13TaggedPointerIJNS_17HomogeneousMediumENS_10GridMediumENS_13RGBGridMediumENS_11CloudMediumENS_13NanoVDBMediumEEEC2ERKS6_(ptr noundef nonnull align 8 dereferenceable(8) %0, ptr noundef nonnull align 8 dereferenceable(8) %1) unnamed_addr #6 comdat align 2 {
  %3 = alloca ptr, align 8
  %4 = alloca ptr, align 8
  store ptr %0, ptr %3, align 8, !tbaa !619
  store ptr %1, ptr %4, align 8, !tbaa !619
  %5 = load ptr, ptr %3, align 8
  %6 = getelementptr inbounds nuw %"class.pbrt::TaggedPointer", ptr %5, i32 0, i32 0
  store i64 0, ptr %6, align 8, !tbaa !621
  %7 = load ptr, ptr %4, align 8, !tbaa !619
  %8 = getelementptr inbounds nuw %"class.pbrt::TaggedPointer", ptr %7, i32 0, i32 0
  %9 = load i64, ptr %8, align 8, !tbaa !621
  %10 = getelementptr inbounds nuw %"class.pbrt::TaggedPointer", ptr %5, i32 0, i32 0
  store i64 %9, ptr %10, align 8, !tbaa !621
  ret void
}

; Function Attrs: inlinehint mustprogress uwtable
define linkonce_odr dso_local void @_ZN4pbrt6MediumC2ERKS0_(ptr noundef nonnull align 8 dereferenceable(8) %0, ptr noundef nonnull align 8 dereferenceable(8) %1) unnamed_addr #5 comdat align 2 {
  %3 = alloca ptr, align 8
  %4 = alloca ptr, align 8
  store ptr %0, ptr %3, align 8, !tbaa !148
  store ptr %1, ptr %4, align 8, !tbaa !148
  %5 = load ptr, ptr %3, align 8
  %6 = load ptr, ptr %4, align 8, !tbaa !148
  call void @_ZN4pbrt13TaggedPointerIJNS_17HomogeneousMediumENS_10GridMediumENS_13RGBGridMediumENS_11CloudMediumENS_13NanoVDBMediumEEEC2ERKS6_(ptr noundef nonnull align 8 dereferenceable(8) %5, ptr noundef nonnull align 8 dereferenceable(8) %6)
  ret void
}

; Function Attrs: mustprogress nounwind uwtable
define linkonce_odr dso_local void @_ZN4pbrt13TaggedPointerIJNS_16ConstantSpectrumENS_22DenselySampledSpectrumENS_23PiecewiseLinearSpectrumENS_17RGBAlbedoSpectrumENS_20RGBUnboundedSpectrumENS_21RGBIlluminantSpectrumENS_17BlackbodySpectrumEEEC2ERKS8_(ptr noundef nonnull align 8 dereferenceable(8) %0, ptr noundef nonnull align 8 dereferenceable(8) %1) unnamed_addr #6 comdat align 2 {
  %3 = alloca ptr, align 8
  %4 = alloca ptr, align 8
  store ptr %0, ptr %3, align 8, !tbaa !354
  store ptr %1, ptr %4, align 8, !tbaa !354
  %5 = load ptr, ptr %3, align 8
  %6 = getelementptr inbounds nuw %"class.pbrt::TaggedPointer.11", ptr %5, i32 0, i32 0
  store i64 0, ptr %6, align 8, !tbaa !356
  %7 = load ptr, ptr %4, align 8, !tbaa !354
  %8 = getelementptr inbounds nuw %"class.pbrt::TaggedPointer.11", ptr %7, i32 0, i32 0
  %9 = load i64, ptr %8, align 8, !tbaa !356
  %10 = getelementptr inbounds nuw %"class.pbrt::TaggedPointer.11", ptr %5, i32 0, i32 0
  store i64 %9, ptr %10, align 8, !tbaa !356
  ret void
}

; Function Attrs: inlinehint mustprogress uwtable
define linkonce_odr dso_local void @_ZN4pbrt15MediumInterfaceC2ERKS0_(ptr noundef nonnull align 8 dereferenceable(16) %0, ptr noundef nonnull align 8 dereferenceable(16) %1) unnamed_addr #5 comdat align 2 {
  %3 = alloca ptr, align 8
  %4 = alloca ptr, align 8
  store ptr %0, ptr %3, align 8, !tbaa !42
  store ptr %1, ptr %4, align 8, !tbaa !42
  %5 = load ptr, ptr %3, align 8
  %6 = getelementptr inbounds nuw %"struct.pbrt::MediumInterface", ptr %5, i32 0, i32 0
  %7 = load ptr, ptr %4, align 8, !tbaa !42
  %8 = getelementptr inbounds nuw %"struct.pbrt::MediumInterface", ptr %7, i32 0, i32 0
  call void @_ZN4pbrt6MediumC2ERKS0_(ptr noundef nonnull align 8 dereferenceable(8) %6, ptr noundef nonnull align 8 dereferenceable(8) %8)
  %9 = getelementptr inbounds nuw %"struct.pbrt::MediumInterface", ptr %5, i32 0, i32 1
  %10 = load ptr, ptr %4, align 8, !tbaa !42
  %11 = getelementptr inbounds nuw %"struct.pbrt::MediumInterface", ptr %10, i32 0, i32 1
  call void @_ZN4pbrt6MediumC2ERKS0_(ptr noundef nonnull align 8 dereferenceable(8) %9, ptr noundef nonnull align 8 dereferenceable(8) %11)
  ret void
}

; Function Attrs: inlinehint mustprogress nounwind uwtable
define linkonce_odr dso_local noundef float @_ZSt3cosf(float noundef %0) #3 comdat {
  %2 = alloca float, align 4
  store float %0, ptr %2, align 4, !tbaa !9
  %3 = load float, ptr %2, align 4, !tbaa !9
  %4 = call float @cosf(float noundef %3) #22, !tbaa !61
  ret float %4
}

; Function Attrs: inlinehint mustprogress nounwind uwtable
define linkonce_odr dso_local noundef float @_ZN4pbrt7RadiansEf(float noundef %0) #3 comdat {
  %2 = alloca float, align 4
  store float %0, ptr %2, align 4, !tbaa !9
  %3 = load float, ptr %2, align 4, !tbaa !9
  %4 = fmul float 0x3F91DF46A0000000, %3
  ret float %4
}

; Function Attrs: inlinehint mustprogress uwtable
define linkonce_odr dso_local void @_ZN4pbrt8SpectrumC2ERKS0_(ptr noundef nonnull align 8 dereferenceable(8) %0, ptr noundef nonnull align 8 dereferenceable(8) %1) unnamed_addr #5 comdat align 2 {
  %3 = alloca ptr, align 8
  %4 = alloca ptr, align 8
  store ptr %0, ptr %3, align 8, !tbaa !55
  store ptr %1, ptr %4, align 8, !tbaa !55
  %5 = load ptr, ptr %3, align 8
  %6 = load ptr, ptr %4, align 8, !tbaa !55
  call void @_ZN4pbrt13TaggedPointerIJNS_16ConstantSpectrumENS_22DenselySampledSpectrumENS_23PiecewiseLinearSpectrumENS_17RGBAlbedoSpectrumENS_20RGBUnboundedSpectrumENS_21RGBIlluminantSpectrumENS_17BlackbodySpectrumEEEC2ERKS8_(ptr noundef nonnull align 8 dereferenceable(8) %5, ptr noundef nonnull align 8 dereferenceable(8) %6)
  ret void
}

; Function Attrs: mustprogress uwtable
define dso_local void @_ZN4pbrt9LightBaseC2ENS_9LightTypeERKNS_9TransformERKNS_15MediumInterfaceE(ptr noundef nonnull align 8 dereferenceable(152) %0, i32 noundef %1, ptr noundef nonnull align 4 dereferenceable(128) %2, ptr noundef nonnull align 8 dereferenceable(16) %3) unnamed_addr #1 align 2 {
  %5 = alloca ptr, align 8
  %6 = alloca i32, align 4
  %7 = alloca ptr, align 8
  %8 = alloca ptr, align 8
  store ptr %0, ptr %5, align 8, !tbaa !38
  store i32 %1, ptr %6, align 4, !tbaa !32
  store ptr %2, ptr %7, align 8, !tbaa !40
  store ptr %3, ptr %8, align 8, !tbaa !42
  %9 = load ptr, ptr %5, align 8
  %10 = getelementptr inbounds nuw %"class.pbrt::LightBase", ptr %9, i32 0, i32 0
  %11 = load i32, ptr %6, align 4, !tbaa !32
  store i32 %11, ptr %10, align 8, !tbaa !44
  %12 = getelementptr inbounds nuw %"class.pbrt::LightBase", ptr %9, i32 0, i32 1
  %13 = load ptr, ptr %7, align 8, !tbaa !40
  call void @llvm.memcpy.p0.p0.i64(ptr align 4 %12, ptr align 4 %13, i64 128, i1 false), !tbaa.struct !52
  %14 = getelementptr inbounds nuw %"class.pbrt::LightBase", ptr %9, i32 0, i32 2
  %15 = load ptr, ptr %8, align 8, !tbaa !42
  call void @_ZN4pbrt15MediumInterfaceC2ERKS0_(ptr noundef nonnull align 8 dereferenceable(16) %14, ptr noundef nonnull align 8 dereferenceable(16) %15)
  %16 = call align 8 ptr @llvm.threadlocal.address.p0(ptr align 8 @_ZN4pbrtL9numLightsE)
  %17 = load i64, ptr %16, align 8, !tbaa !54
  %18 = add nsw i64 %17, 1
  store i64 %18, ptr %16, align 8, !tbaa !54
  ret void
}

; Function Attrs: mustprogress uwtable
define dso_local void @_ZN4pbrt9SpotLightC2ERKNS_9TransformERKNS_15MediumInterfaceENS_8SpectrumEfff(ptr noundef nonnull align 8 dereferenceable(172) %0, ptr noundef nonnull align 4 dereferenceable(128) %1, ptr noundef nonnull align 8 dereferenceable(16) %2, ptr noundef %3, float noundef %4, float noundef %5, float noundef %6) unnamed_addr #1 align 2 {
  %8 = alloca ptr, align 8
  %9 = alloca ptr, align 8
  %10 = alloca ptr, align 8
  %11 = alloca ptr, align 8
  %12 = alloca float, align 4
  %13 = alloca float, align 4
  %14 = alloca float, align 4
  %15 = alloca %"class.pbrt::Spectrum", align 8
  %16 = alloca float, align 4
  %17 = alloca float, align 4
  store ptr %0, ptr %8, align 8, !tbaa !460
  store ptr %1, ptr %9, align 8, !tbaa !40
  store ptr %2, ptr %10, align 8, !tbaa !42
  store ptr %3, ptr %11, align 8, !tbaa !55
  store float %4, ptr %12, align 4, !tbaa !9
  store float %5, ptr %13, align 4, !tbaa !9
  store float %6, ptr %14, align 4, !tbaa !9
  %18 = load ptr, ptr %8, align 8
  %19 = load ptr, ptr %9, align 8, !tbaa !40
  %20 = load ptr, ptr %10, align 8, !tbaa !42
  call void @_ZN4pbrt9LightBaseC2ENS_9LightTypeERKNS_9TransformERKNS_15MediumInterfaceE(ptr noundef nonnull align 8 dereferenceable(152) %18, i32 noundef 0, ptr noundef nonnull align 4 dereferenceable(128) %19, ptr noundef nonnull align 8 dereferenceable(16) %20)
  %21 = getelementptr inbounds nuw %"class.pbrt::SpotLight", ptr %18, i32 0, i32 1
  call void @_ZN4pbrt8SpectrumC2ERKS0_(ptr noundef nonnull align 8 dereferenceable(8) %15, ptr noundef nonnull align 8 dereferenceable(8) %3)
  %22 = call noundef ptr @_ZN4pbrt9LightBase14LookupSpectrumENS_8SpectrumE(ptr noundef %15)
  store ptr %22, ptr %21, align 8, !tbaa !462
  %23 = getelementptr inbounds nuw %"class.pbrt::SpotLight", ptr %18, i32 0, i32 2
  %24 = load float, ptr %12, align 4, !tbaa !9
  store float %24, ptr %23, align 8, !tbaa !464
  %25 = getelementptr inbounds nuw %"class.pbrt::SpotLight", ptr %18, i32 0, i32 3
  %26 = load float, ptr %14, align 4, !tbaa !9
  %27 = call noundef float @_ZN4pbrt7RadiansEf(float noundef %26)
  %28 = call noundef float @_ZSt3cosf(float noundef %27)
  store float %28, ptr %25, align 4, !tbaa !465
  %29 = getelementptr inbounds nuw %"class.pbrt::SpotLight", ptr %18, i32 0, i32 4
  %30 = load float, ptr %13, align 4, !tbaa !9
  %31 = call noundef float @_ZN4pbrt7RadiansEf(float noundef %30)
  %32 = call noundef float @_ZSt3cosf(float noundef %31)
  store float %32, ptr %29, align 8, !tbaa !466
  br label %33

33:                                               ; preds = %7
  call void @llvm.lifetime.start.p0(i64 4, ptr %16) #22
  %34 = load float, ptr %14, align 4, !tbaa !9
  store float %34, ptr %16, align 4, !tbaa !9
  call void @llvm.lifetime.start.p0(i64 4, ptr %17) #22
  %35 = load float, ptr %13, align 4, !tbaa !9
  store float %35, ptr %17, align 4, !tbaa !9
  %36 = load float, ptr %16, align 4, !tbaa !9
  %37 = load float, ptr %17, align 4, !tbaa !9
  %38 = fcmp ole float %36, %37
  br i1 %38, label %40, label %39

39:                                               ; preds = %33
  call void @_ZN4pbrt8LogFatalIJRA13_KcRA11_S1_S3_RfS5_S6_EEEvNS_8LogLevelEPS1_iS8_DpOT_(i32 noundef 2, ptr noundef @.str.11, i32 noundef 1353, ptr noundef @.str.79, ptr noundef nonnull align 1 dereferenceable(13) @.str.80, ptr noundef nonnull align 1 dereferenceable(11) @.str.81, ptr noundef nonnull align 1 dereferenceable(13) @.str.80, ptr noundef nonnull align 4 dereferenceable(4) %16, ptr noundef nonnull align 1 dereferenceable(11) @.str.81, ptr noundef nonnull align 4 dereferenceable(4) %17) #23
  unreachable

40:                                               ; preds = %33
  call void @llvm.lifetime.end.p0(i64 4, ptr %17) #22
  call void @llvm.lifetime.end.p0(i64 4, ptr %16) #22
  br label %41

41:                                               ; preds = %40
  ret void
}