; Function Attrs: mustprogress uwtable
define dso_local void @_ZN4pbrt9SpotLightC2ERKNS_9TransformERKNS_15MediumInterfaceENS_8SpectrumEfff(ptr noundef nonnull writeonly align 8 captures(none) dereferenceable(172) initializes((0, 132), (136, 172)) %0, ptr noundef nonnull readonly align 4 captures(none) dereferenceable(128) %1, ptr noundef nonnull readonly align 8 captures(none) dereferenceable(16) %2, ptr noundef readonly captures(none) %3, float noundef %4, float noundef %5, float noundef %6) unnamed_addr #2 align 2 {
  %8 = alloca %"class.pbrt::Spectrum", align 8
  %9 = alloca float, align 4
  %10 = alloca float, align 4
  store i32 0, ptr %0, align 8, !tbaa !22
  %11 = getelementptr inbounds nuw i8, ptr %0, i64 4
  tail call void @llvm.memcpy.p0.p0.i64(ptr noundef nonnull align 4 dereferenceable(128) %11, ptr noundef nonnull readonly align 4 dereferenceable(128) %1, i64 128, i1 false), !tbaa.struct !30
  %12 = getelementptr inbounds nuw i8, ptr %0, i64 136
  store i64 0, ptr %12, align 8, !tbaa !31
  %13 = load i64, ptr %2, align 8, !tbaa !31
  store i64 %13, ptr %12, align 8, !tbaa !31
  %14 = getelementptr inbounds nuw i8, ptr %0, i64 144
  %15 = getelementptr inbounds nuw i8, ptr %2, i64 8
  store i64 0, ptr %14, align 8, !tbaa !31
  %16 = load i64, ptr %15, align 8, !tbaa !31
  store i64 %16, ptr %14, align 8, !tbaa !31
  %17 = tail call align 8 ptr @llvm.threadlocal.address.p0(ptr align 8 @_ZN4pbrtL9numLightsE)
  %18 = load i64, ptr %17, align 8, !tbaa !21
  %19 = add nsw i64 %18, 1
  store i64 %19, ptr %17, align 8, !tbaa !21
  %20 = getelementptr inbounds nuw i8, ptr %0, i64 152
  %21 = load i64, ptr %3, align 8, !tbaa !64
  store i64 %21, ptr %8, align 8, !tbaa !64
  %22 = call noundef ptr @_ZN4pbrt9LightBase14LookupSpectrumENS_8SpectrumE(ptr noundef nonnull %8)
  store ptr %22, ptr %20, align 8, !tbaa !581
  %23 = getelementptr inbounds nuw i8, ptr %0, i64 160
  store float %4, ptr %23, align 8, !tbaa !583
  %24 = getelementptr inbounds nuw i8, ptr %0, i64 164
  %25 = fmul float %6, 0x3F91DF46A0000000
  %26 = tail call noundef float @cosf(float noundef %25) #38, !tbaa !86
  store float %26, ptr %24, align 4, !tbaa !584
  %27 = getelementptr inbounds nuw i8, ptr %0, i64 168
  %28 = fmul float %5, 0x3F91DF46A0000000
  %29 = tail call noundef float @cosf(float noundef %28) #38, !tbaa !86
  store float %29, ptr %27, align 8, !tbaa !585
  call void @llvm.lifetime.start.p0(i64 4, ptr nonnull %9) #38
  store float %6, ptr %9, align 4, !tbaa !77
  call void @llvm.lifetime.start.p0(i64 4, ptr nonnull %10) #38
  store float %5, ptr %10, align 4, !tbaa !77
  %30 = fcmp ugt float %6, %5
  br i1 %30, label %31, label %32

31:                                               ; preds = %7
  call void @_ZN4pbrt8LogFatalIJRA13_KcRA11_S1_S3_RfS5_S6_EEEvNS_8LogLevelEPS1_iS8_DpOT_(i32 noundef 2, ptr noundef nonnull @.str.11, i32 noundef 1353, ptr noundef nonnull @.str.79, ptr noundef nonnull align 1 dereferenceable(13) @.str.80, ptr noundef nonnull align 1 dereferenceable(11) @.str.81, ptr noundef nonnull align 1 dereferenceable(13) @.str.80, ptr noundef nonnull align 4 dereferenceable(4) %9, ptr noundef nonnull align 1 dereferenceable(11) @.str.81, ptr noundef nonnull align 4 dereferenceable(4) %10) #37
  unreachable

32:                                               ; preds = %7
  call void @llvm.lifetime.end.p0(i64 4, ptr nonnull %10) #38
  call void @llvm.lifetime.end.p0(i64 4, ptr nonnull %9) #38
  ret void
}